; Function Attrs: mustprogress optsize uwtable
define void @_ZN5ZXing6ResultC2EONS_13DecoderResultEONS_13QuadrilateralINS_6PointTIiEEEENS_13BarcodeFormatE(ptr noundef nonnull align 8 dereferenceable(211) initializes((0, 54)) %0, ptr noundef nonnull align 8 dereferenceable(216) %1, ptr noundef nonnull readonly align 4 captures(none) dereferenceable(32) %2, i32 noundef %3) unnamed_addr #0 align 2 personality ptr @__gxx_personality_v0 {
_ZN5ZXing9BitMatrixD2Ev.exit:
  %4 = alloca %"class.ZXing::DetectorResult", align 8
  call void @llvm.lifetime.start.p0(i64 64, ptr nonnull %4) #26
  %5 = getelementptr inbounds nuw i8, ptr %4, i64 32
  call void @llvm.memset.p0.i64(ptr noundef nonnull align 8 dereferenceable(32) %4, i8 0, i64 32, i1 false)
  call void @llvm.memcpy.p0.p0.i64(ptr noundef nonnull align 8 dereferenceable(32) %5, ptr noundef nonnull align 4 dereferenceable(32) %2, i64 32, i1 false)
  call void @_ZN5ZXing6ResultC2EONS_13DecoderResultEONS_14DetectorResultENS_13BarcodeFormatE(ptr noundef nonnull align 8 dereferenceable(211) %0, ptr noundef nonnull align 8 dereferenceable(216) %1, ptr noundef nonnull align 8 dereferenceable(64) %4, i32 noundef %3) #27
  call void @llvm.lifetime.end.p0(i64 64, ptr nonnull %4) #26
  ret void
}